target datalayout = "e-m:e-p270:32:32-p271:32:32-p272:64:64-i64:64-i128:128-f80:128-n8:16:32:64-S128"
target triple = "x86_64-pc-linux-gnu"

%struct.aiNode = type { %struct.aiString, %class.aiMatrix4x4t, ptr, i32, ptr, i32, ptr, ptr }
%struct.aiString = type { i32, [1024 x i8] }
%class.aiMatrix4x4t = type { float, float, float, float, float, float, float, float, float, float, float, float, float, float, float, float }
%"struct.std::_Vector_base.14" = type { %"struct.std::_Vector_base<Assimp::NodeAttachmentInfo, std::allocator<Assimp::NodeAttachmentInfo>>::_Vector_impl" }
%"struct.std::_Vector_base<Assimp::NodeAttachmentInfo, std::allocator<Assimp::NodeAttachmentInfo>>::_Vector_impl" = type { %"struct.std::_Vector_base<Assimp::NodeAttachmentInfo, std::allocator<Assimp::NodeAttachmentInfo>>::_Vector_impl_data" }
%"struct.std::_Vector_base<Assimp::NodeAttachmentInfo, std::allocator<Assimp::NodeAttachmentInfo>>::_Vector_impl_data" = type { ptr, ptr, ptr }
%"class.__gnu_cxx::__normal_iterator" = type { ptr }
%"struct.Assimp::NodeAttachmentInfo" = type { ptr, ptr, i8, i64 }

; Function Attrs: mustprogress nounwind uwtable
define linkonce_odr hidden noundef nonnull align 8 dereferenceable(8) ptr @_ZNK9__gnu_cxx17__normal_iteratorIPN6Assimp18NodeAttachmentInfoESt6vectorIS2_SaIS2_EEE4baseEv(ptr noundef nonnull align 8 dereferenceable(8) %0) #4 comdat align 2 {
  %2 = alloca ptr, align 8
  store ptr %0, ptr %2, align 8
  %3 = load ptr, ptr %2, align 8
  %4 = getelementptr inbounds nuw %"class.__gnu_cxx::__normal_iterator", ptr %3, i32 0, i32 0
  ret ptr %4
}

; Function Attrs: mustprogress nounwind uwtable
define linkonce_odr hidden void @_ZN9__gnu_cxx17__normal_iteratorIPN6Assimp18NodeAttachmentInfoESt6vectorIS2_SaIS2_EEEC2ERKS3_(ptr noundef nonnull align 8 dereferenceable(8) %0, ptr noundef nonnull align 8 dereferenceable(8) %1) unnamed_addr #4 comdat align 2 {
  %3 = alloca ptr, align 8
  %4 = alloca ptr, align 8
  store ptr %0, ptr %3, align 8
  store ptr %1, ptr %4, align 8
  %5 = load ptr, ptr %3, align 8
  %6 = getelementptr inbounds nuw %"class.__gnu_cxx::__normal_iterator", ptr %5, i32 0, i32 0
  %7 = load ptr, ptr %4, align 8
  %8 = load ptr, ptr %7, align 8
  store ptr %8, ptr %6, align 8
  ret void
}

; Function Attrs: mustprogress nounwind uwtable
define linkonce_odr hidden noundef nonnull align 8 dereferenceable(32) ptr @_ZNSt6vectorIN6Assimp18NodeAttachmentInfoESaIS1_EEixEm(ptr noundef nonnull align 8 dereferenceable(24) %0, i64 noundef %1) #4 comdat align 2 {
  %3 = alloca ptr, align 8
  %4 = alloca i64, align 8
  store ptr %0, ptr %3, align 8
  store i64 %1, ptr %4, align 8
  %5 = load ptr, ptr %3, align 8
  %6 = getelementptr inbounds nuw %"struct.std::_Vector_base.14", ptr %5, i32 0, i32 0
  %7 = getelementptr inbounds nuw %"struct.std::_Vector_base<Assimp::NodeAttachmentInfo, std::allocator<Assimp::NodeAttachmentInfo>>::_Vector_impl_data", ptr %6, i32 0, i32 0
  %8 = load ptr, ptr %7, align 8
  %9 = load i64, ptr %4, align 8
  %10 = getelementptr inbounds nuw %"struct.Assimp::NodeAttachmentInfo", ptr %8, i64 %9
  ret ptr %10
}

; Function Attrs: mustprogress nounwind uwtable
define linkonce_odr hidden noundef i64 @_ZNKSt6vectorIN6Assimp18NodeAttachmentInfoESaIS1_EE4sizeEv(ptr noundef nonnull align 8 dereferenceable(24) %0) #4 comdat align 2 {
  %2 = alloca ptr, align 8
  store ptr %0, ptr %2, align 8
  %3 = load ptr, ptr %2, align 8
  %4 = getelementptr inbounds nuw %"struct.std::_Vector_base.14", ptr %3, i32 0, i32 0
  %5 = getelementptr inbounds nuw %"struct.std::_Vector_base<Assimp::NodeAttachmentInfo, std::allocator<Assimp::NodeAttachmentInfo>>::_Vector_impl_data", ptr %4, i32 0, i32 1
  %6 = load ptr, ptr %5, align 8
  %7 = getelementptr inbounds nuw %"struct.std::_Vector_base.14", ptr %3, i32 0, i32 0
  %8 = getelementptr inbounds nuw %"struct.std::_Vector_base<Assimp::NodeAttachmentInfo, std::allocator<Assimp::NodeAttachmentInfo>>::_Vector_impl_data", ptr %7, i32 0, i32 0
  %9 = load ptr, ptr %8, align 8
  %10 = ptrtoint ptr %6 to i64
  %11 = ptrtoint ptr %9 to i64
  %12 = sub i64 %10, %11
  %13 = sdiv exact i64 %12, 32
  ret i64 %13
}

; Function Attrs: mustprogress nounwind uwtable
define linkonce_odr hidden noundef nonnull align 8 dereferenceable(8) ptr @_ZN9__gnu_cxx17__normal_iteratorIPN6Assimp18NodeAttachmentInfoESt6vectorIS2_SaIS2_EEEppEv(ptr noundef nonnull align 8 dereferenceable(8) %0) #4 comdat align 2 {
  %2 = alloca ptr, align 8
  store ptr %0, ptr %2, align 8
  %3 = load ptr, ptr %2, align 8
  %4 = getelementptr inbounds nuw %"class.__gnu_cxx::__normal_iterator", ptr %3, i32 0, i32 0
  %5 = load ptr, ptr %4, align 8
  %6 = getelementptr inbounds nuw %"struct.Assimp::NodeAttachmentInfo", ptr %5, i32 1
  store ptr %6, ptr %4, align 8
  ret ptr %3
}

; Function Attrs: mustprogress nounwind uwtable
define linkonce_odr hidden noundef nonnull align 8 dereferenceable(32) ptr @_ZNK9__gnu_cxx17__normal_iteratorIPN6Assimp18NodeAttachmentInfoESt6vectorIS2_SaIS2_EEEdeEv(ptr noundef nonnull align 8 dereferenceable(8) %0) #4 comdat align 2 {
  %2 = alloca ptr, align 8
  store ptr %0, ptr %2, align 8
  %3 = load ptr, ptr %2, align 8
  %4 = getelementptr inbounds nuw %"class.__gnu_cxx::__normal_iterator", ptr %3, i32 0, i32 0
  %5 = load ptr, ptr %4, align 8
  ret ptr %5
}

; Function Attrs: inlinehint mustprogress nounwind uwtable
define linkonce_odr hidden noundef zeroext i1 @_ZN9__gnu_cxxneIPN6Assimp18NodeAttachmentInfoESt6vectorIS2_SaIS2_EEEEbRKNS_17__normal_iteratorIT_T0_EESC_(ptr noundef nonnull align 8 dereferenceable(8) %0, ptr noundef nonnull align 8 dereferenceable(8) %1) #2 comdat {
  %3 = alloca ptr, align 8
  %4 = alloca ptr, align 8
  store ptr %0, ptr %3, align 8
  store ptr %1, ptr %4, align 8
  %5 = load ptr, ptr %3, align 8
  %6 = call noundef nonnull align 8 dereferenceable(8) ptr @_ZNK9__gnu_cxx17__normal_iteratorIPN6Assimp18NodeAttachmentInfoESt6vectorIS2_SaIS2_EEE4baseEv(ptr noundef nonnull align 8 dereferenceable(8) %5) #17
  %7 = load ptr, ptr %6, align 8
  %8 = load ptr, ptr %4, align 8
  %9 = call noundef nonnull align 8 dereferenceable(8) ptr @_ZNK9__gnu_cxx17__normal_iteratorIPN6Assimp18NodeAttachmentInfoESt6vectorIS2_SaIS2_EEE4baseEv(ptr noundef nonnull align 8 dereferenceable(8) %8) #17
  %10 = load ptr, ptr %9, align 8
  %11 = icmp ne ptr %7, %10
  ret i1 %11
}

; Function Attrs: mustprogress nounwind uwtable
define linkonce_odr hidden ptr @_ZNSt6vectorIN6Assimp18NodeAttachmentInfoESaIS1_EE3endEv(ptr noundef nonnull align 8 dereferenceable(24) %0) #4 comdat align 2 {
  %2 = alloca %"class.__gnu_cxx::__normal_iterator", align 8
  %3 = alloca ptr, align 8
  store ptr %0, ptr %3, align 8
  %4 = load ptr, ptr %3, align 8
  %5 = getelementptr inbounds nuw %"struct.std::_Vector_base.14", ptr %4, i32 0, i32 0
  %6 = getelementptr inbounds nuw %"struct.std::_Vector_base<Assimp::NodeAttachmentInfo, std::allocator<Assimp::NodeAttachmentInfo>>::_Vector_impl_data", ptr %5, i32 0, i32 1
  call void @_ZN9__gnu_cxx17__normal_iteratorIPN6Assimp18NodeAttachmentInfoESt6vectorIS2_SaIS2_EEEC2ERKS3_(ptr noundef nonnull align 8 dereferenceable(8) %2, ptr noundef nonnull align 8 dereferenceable(8) %6) #17
  %7 = getelementptr inbounds nuw %"class.__gnu_cxx::__normal_iterator", ptr %2, i32 0, i32 0
  %8 = load ptr, ptr %7, align 8
  ret ptr %8
}

; Function Attrs: mustprogress nounwind uwtable
define linkonce_odr hidden ptr @_ZNSt6vectorIN6Assimp18NodeAttachmentInfoESaIS1_EE5beginEv(ptr noundef nonnull align 8 dereferenceable(24) %0) #4 comdat align 2 {
  %2 = alloca %"class.__gnu_cxx::__normal_iterator", align 8
  %3 = alloca ptr, align 8
  store ptr %0, ptr %3, align 8
  %4 = load ptr, ptr %3, align 8
  %5 = getelementptr inbounds nuw %"struct.std::_Vector_base.14", ptr %4, i32 0, i32 0
  %6 = getelementptr inbounds nuw %"struct.std::_Vector_base<Assimp::NodeAttachmentInfo, std::allocator<Assimp::NodeAttachmentInfo>>::_Vector_impl_data", ptr %5, i32 0, i32 0
  call void @_ZN9__gnu_cxx17__normal_iteratorIPN6Assimp18NodeAttachmentInfoESt6vectorIS2_SaIS2_EEEC2ERKS3_(ptr noundef nonnull align 8 dereferenceable(8) %2, ptr noundef nonnull align 8 dereferenceable(8) %6) #17
  %7 = getelementptr inbounds nuw %"class.__gnu_cxx::__normal_iterator", ptr %2, i32 0, i32 0
  %8 = load ptr, ptr %7, align 8
  ret ptr %8
}

; Function Attrs: mustprogress uwtable
define void @_ZN6Assimp13SceneCombiner13AttachToGraphEP6aiNodeRSt6vectorINS_18NodeAttachmentInfoESaIS4_EE(ptr noundef %0, ptr noundef nonnull align 8 dereferenceable(24) %1) #0 align 2 {
  %3 = alloca ptr, align 8
  %4 = alloca ptr, align 8
  %5 = alloca i32, align 4
  %6 = alloca %"class.__gnu_cxx::__normal_iterator", align 8
  %7 = alloca %"class.__gnu_cxx::__normal_iterator", align 8
  %8 = alloca ptr, align 8
  %9 = alloca i32, align 4
  %10 = alloca ptr, align 8
  store ptr %0, ptr %3, align 8
  store ptr %1, ptr %4, align 8
  call void @llvm.lifetime.start.p0(i64 4, ptr %5) #17
  store i32 0, ptr %5, align 4
  br label %11

11:                                               ; preds = %26, %2
  %12 = load i32, ptr %5, align 4
  %13 = load ptr, ptr %3, align 8
  %14 = getelementptr inbounds nuw %struct.aiNode, ptr %13, i32 0, i32 3
  %15 = load i32, ptr %14, align 8
  %16 = icmp ult i32 %12, %15
  br i1 %16, label %17, label %29

17:                                               ; preds = %11
  %18 = load ptr, ptr %3, align 8
  %19 = getelementptr inbounds nuw %struct.aiNode, ptr %18, i32 0, i32 4
  %20 = load ptr, ptr %19, align 8
  %21 = load i32, ptr %5, align 4
  %22 = zext i32 %21 to i64
  %23 = getelementptr inbounds nuw ptr, ptr %20, i64 %22
  %24 = load ptr, ptr %23, align 8
  %25 = load ptr, ptr %4, align 8
  call void @_ZN6Assimp13SceneCombiner13AttachToGraphEP6aiNodeRSt6vectorINS_18NodeAttachmentInfoESaIS4_EE(ptr noundef %24, ptr noundef nonnull align 8 dereferenceable(24) %25)
  br label %26

26:                                               ; preds = %17
  %27 = load i32, ptr %5, align 4
  %28 = add i32 %27, 1
  store i32 %28, ptr %5, align 4
  br label %11, !llvm.loop !38

29:                                               ; preds = %11
  store i32 0, ptr %5, align 4
  call void @llvm.lifetime.start.p0(i64 8, ptr %6) #17
  %30 = load ptr, ptr %4, align 8
  %31 = call ptr @_ZNSt6vectorIN6Assimp18NodeAttachmentInfoESaIS1_EE5beginEv(ptr noundef nonnull align 8 dereferenceable(24) %30) #17
  %32 = getelementptr inbounds nuw %"class.__gnu_cxx::__normal_iterator", ptr %6, i32 0, i32 0
  store ptr %31, ptr %32, align 8
  br label %33

33:                                               ; preds = %54, %29
  call void @llvm.lifetime.start.p0(i64 8, ptr %7) #17
  %34 = load ptr, ptr %4, align 8
  %35 = call ptr @_ZNSt6vectorIN6Assimp18NodeAttachmentInfoESaIS1_EE3endEv(ptr noundef nonnull align 8 dereferenceable(24) %34) #17
  %36 = getelementptr inbounds nuw %"class.__gnu_cxx::__normal_iterator", ptr %7, i32 0, i32 0
  store ptr %35, ptr %36, align 8
  %37 = call noundef zeroext i1 @_ZN9__gnu_cxxneIPN6Assimp18NodeAttachmentInfoESt6vectorIS2_SaIS2_EEEEbRKNS_17__normal_iteratorIT_T0_EESC_(ptr noundef nonnull align 8 dereferenceable(8) %6, ptr noundef nonnull align 8 dereferenceable(8) %7) #17
  call void @llvm.lifetime.end.p0(i64 8, ptr %7) #17
  br i1 %37, label %39, label %38

38:                                               ; preds = %33
  call void @llvm.lifetime.end.p0(i64 8, ptr %6) #17
  br label %56

39:                                               ; preds = %33
  %40 = call noundef nonnull align 8 dereferenceable(32) ptr @_ZNK9__gnu_cxx17__normal_iteratorIPN6Assimp18NodeAttachmentInfoESt6vectorIS2_SaIS2_EEEdeEv(ptr noundef nonnull align 8 dereferenceable(8) %6) #17
  %41 = getelementptr inbounds nuw %"struct.Assimp::NodeAttachmentInfo", ptr %40, i32 0, i32 1
  %42 = load ptr, ptr %41, align 8
  %43 = load ptr, ptr %3, align 8
  %44 = icmp eq ptr %42, %43
  br i1 %44, label %45, label %53

45:                                               ; preds = %39
  %46 = call noundef nonnull align 8 dereferenceable(32) ptr @_ZNK9__gnu_cxx17__normal_iteratorIPN6Assimp18NodeAttachmentInfoESt6vectorIS2_SaIS2_EEEdeEv(ptr noundef nonnull align 8 dereferenceable(8) %6) #17
  %47 = getelementptr inbounds nuw %"struct.Assimp::NodeAttachmentInfo", ptr %46, i32 0, i32 2
  %48 = load i8, ptr %47, align 8, !range !33, !noundef !34
  %49 = trunc i8 %48 to i1
  br i1 %49, label %53, label %50

50:                                               ; preds = %45
  %51 = load i32, ptr %5, align 4
  %52 = add i32 %51, 1
  store i32 %52, ptr %5, align 4
  br label %53

53:                                               ; preds = %50, %45, %39
  br label %54

54:                                               ; preds = %53
  %55 = call noundef nonnull align 8 dereferenceable(8) ptr @_ZN9__gnu_cxx17__normal_iteratorIPN6Assimp18NodeAttachmentInfoESt6vectorIS2_SaIS2_EEEppEv(ptr noundef nonnull align 8 dereferenceable(8) %6) #17
  br label %33, !llvm.loop !39

56:                                               ; preds = %38
  %57 = load i32, ptr %5, align 4
  %58 = icmp ne i32 %57, 0
  br i1 %58, label %59, label %146

59:                                               ; preds = %56
  call void @llvm.lifetime.start.p0(i64 8, ptr %8) #17
  %60 = load i32, ptr %5, align 4
  %61 = load ptr, ptr %3, align 8
  %62 = getelementptr inbounds nuw %struct.aiNode, ptr %61, i32 0, i32 3
  %63 = load i32, ptr %62, align 8
  %64 = add i32 %60, %63
  %65 = zext i32 %64 to i64
  %66 = call { i64, i1 } @llvm.umul.with.overflow.i64(i64 %65, i64 8)
  %67 = extractvalue { i64, i1 } %66, 1
  %68 = extractvalue { i64, i1 } %66, 0
  %69 = select i1 %67, i64 -1, i64 %68
  %70 = call noalias noundef nonnull ptr @_Znam(i64 noundef %69) #19
  store ptr %70, ptr %8, align 8
  %71 = load ptr, ptr %3, align 8
  %72 = getelementptr inbounds nuw %struct.aiNode, ptr %71, i32 0, i32 3
  %73 = load i32, ptr %72, align 8
  %74 = icmp ne i32 %73, 0
  br i1 %74, label %75, label %91

75:                                               ; preds = %59
  %76 = load ptr, ptr %8, align 8
  %77 = load ptr, ptr %3, align 8
  %78 = getelementptr inbounds nuw %struct.aiNode, ptr %77, i32 0, i32 4
  %79 = load ptr, ptr %78, align 8
  %80 = load ptr, ptr %3, align 8
  %81 = getelementptr inbounds nuw %struct.aiNode, ptr %80, i32 0, i32 3
  %82 = load i32, ptr %81, align 8
  %83 = zext i32 %82 to i64
  %84 = mul i64 8, %83
  call void @llvm.memcpy.p0.p0.i64(ptr align 8 %76, ptr align 8 %79, i64 %84, i1 false)
  %85 = load ptr, ptr %3, align 8
  %86 = getelementptr inbounds nuw %struct.aiNode, ptr %85, i32 0, i32 4
  %87 = load ptr, ptr %86, align 8
  %88 = icmp eq ptr %87, null
  br i1 %88, label %90, label %89

89:                                               ; preds = %75
  call void @_ZdaPv(ptr noundef %87) #20
  br label %90

90:                                               ; preds = %89, %75
  br label %91

91:                                               ; preds = %90, %59
  %92 = load ptr, ptr %8, align 8
  %93 = load ptr, ptr %3, align 8
  %94 = getelementptr inbounds nuw %struct.aiNode, ptr %93, i32 0, i32 4
  store ptr %92, ptr %94, align 8
  %95 = load ptr, ptr %3, align 8
  %96 = getelementptr inbounds nuw %struct.aiNode, ptr %95, i32 0, i32 3
  %97 = load i32, ptr %96, align 8
  %98 = load ptr, ptr %8, align 8
  %99 = zext i32 %97 to i64
  %100 = getelementptr inbounds nuw ptr, ptr %98, i64 %99
  store ptr %100, ptr %8, align 8
  %101 = load i32, ptr %5, align 4
  %102 = load ptr, ptr %3, align 8
  %103 = getelementptr inbounds nuw %struct.aiNode, ptr %102, i32 0, i32 3
  %104 = load i32, ptr %103, align 8
  %105 = add i32 %104, %101
  store i32 %105, ptr %103, align 8
  call void @llvm.lifetime.start.p0(i64 4, ptr %9) #17
  store i32 0, ptr %9, align 4
  br label %106

106:                                              ; preds = %142, %91
  %107 = load i32, ptr %9, align 4
  %108 = zext i32 %107 to i64
  %109 = load ptr, ptr %4, align 8
  %110 = call noundef i64 @_ZNKSt6vectorIN6Assimp18NodeAttachmentInfoESaIS1_EE4sizeEv(ptr noundef nonnull align 8 dereferenceable(24) %109) #17
  %111 = icmp ult i64 %108, %110
  br i1 %111, label %113, label %112

112:                                              ; preds = %106
  call void @llvm.lifetime.end.p0(i64 4, ptr %9) #17
  br label %145

113:                                              ; preds = %106
  call void @llvm.lifetime.start.p0(i64 8, ptr %10) #17
  %114 = load ptr, ptr %4, align 8
  %115 = load i32, ptr %9, align 4
  %116 = zext i32 %115 to i64
  %117 = call noundef nonnull align 8 dereferenceable(32) ptr @_ZNSt6vectorIN6Assimp18NodeAttachmentInfoESaIS1_EEixEm(ptr noundef nonnull align 8 dereferenceable(24) %114, i64 noundef %116) #17
  store ptr %117, ptr %10, align 8
  %118 = load ptr, ptr %10, align 8
  %119 = getelementptr inbounds nuw %"struct.Assimp::NodeAttachmentInfo", ptr %118, i32 0, i32 1
  %120 = load ptr, ptr %119, align 8
  %121 = load ptr, ptr %3, align 8
  %122 = icmp eq ptr %120, %121
  br i1 %122, label %123, label %141

123:                                              ; preds = %113
  %124 = load ptr, ptr %10, align 8
  %125 = getelementptr inbounds nuw %"struct.Assimp::NodeAttachmentInfo", ptr %124, i32 0, i32 2
  %126 = load i8, ptr %125, align 8, !range !33, !noundef !34
  %127 = trunc i8 %126 to i1
  br i1 %127, label %141, label %128

128:                                              ; preds = %123
  %129 = load ptr, ptr %10, align 8
  %130 = getelementptr inbounds nuw %"struct.Assimp::NodeAttachmentInfo", ptr %129, i32 0, i32 0
  %131 = load ptr, ptr %130, align 8
  %132 = load ptr, ptr %8, align 8
  store ptr %131, ptr %132, align 8
  %133 = load ptr, ptr %3, align 8
  %134 = load ptr, ptr %8, align 8
  %135 = load ptr, ptr %134, align 8
  %136 = getelementptr inbounds nuw %struct.aiNode, ptr %135, i32 0, i32 2
  store ptr %133, ptr %136, align 8
  %137 = load ptr, ptr %8, align 8
  %138 = getelementptr inbounds nuw ptr, ptr %137, i32 1
  store ptr %138, ptr %8, align 8
  %139 = load ptr, ptr %10, align 8
  %140 = getelementptr inbounds nuw %"struct.Assimp::NodeAttachmentInfo", ptr %139, i32 0, i32 2
  store i8 1, ptr %140, align 8
  br label %141

141:                                              ; preds = %128, %123, %113
  call void @llvm.lifetime.end.p0(i64 8, ptr %10) #17
  br label %142

142:                                              ; preds = %141
  %143 = load i32, ptr %9, align 4
  %144 = add i32 %143, 1
  store i32 %144, ptr %9, align 4
  br label %106, !llvm.loop !40

145:                                              ; preds = %112
  call void @llvm.lifetime.end.p0(i64 8, ptr %8) #17
  br label %146

146:                                              ; preds = %145, %56
  call void @llvm.lifetime.end.p0(i64 4, ptr %5) #17
  ret void
}