; Function Attrs: mustprogress uwtable
define void @_ZN6Assimp13SceneCombiner13AttachToGraphEP6aiNodeRSt6vectorINS_18NodeAttachmentInfoESaIS4_EE(ptr noundef %0, ptr noundef nonnull readonly align 8 captures(none) dereferenceable(24) %1) local_unnamed_addr #0 align 2 {
  %3 = getelementptr inbounds nuw i8, ptr %0, i64 1104
  %4 = load i32, ptr %3, align 8
  %.not64 = icmp eq i32 %4, 0
  br i1 %.not64, label %._crit_edge, label %.lr.ph

.lr.ph:                                           ; preds = %2
  %5 = getelementptr inbounds nuw i8, ptr %0, i64 1112
  br label %6

6:                                                ; preds = %.lr.ph, %6
  %indvars.iv = phi i64 [ 0, %.lr.ph ], [ %indvars.iv.next, %6 ]
  %7 = load ptr, ptr %5, align 8
  %8 = getelementptr inbounds nuw ptr, ptr %7, i64 %indvars.iv
  %9 = load ptr, ptr %8, align 8
  tail call void @_ZN6Assimp13SceneCombiner13AttachToGraphEP6aiNodeRSt6vectorINS_18NodeAttachmentInfoESaIS4_EE(ptr noundef %9, ptr noundef nonnull align 8 dereferenceable(24) %1)
  %indvars.iv.next = add nuw nsw i64 %indvars.iv, 1
  %10 = load i32, ptr %3, align 8
  %11 = zext i32 %10 to i64
  %12 = icmp samesign ult i64 %indvars.iv.next, %11
  br i1 %12, label %6, label %._crit_edge, !llvm.loop !55

._crit_edge:                                      ; preds = %6, %2
  %13 = phi i32 [ 0, %2 ], [ %10, %6 ]
  %14 = load ptr, ptr %1, align 8
  %15 = getelementptr inbounds nuw i8, ptr %1, i64 8
  %16 = load ptr, ptr %15, align 8
  %.not4953 = icmp eq ptr %14, %16
  br i1 %.not4953, label %.loopexit, label %.lr.ph57

._crit_edge58:                                    ; preds = %24
  %.not = icmp eq i32 %.2, 0
  br i1 %.not, label %.loopexit, label %26

.lr.ph57:                                         ; preds = %._crit_edge, %24
  %.155 = phi i32 [ %.2, %24 ], [ 0, %._crit_edge ]
  %.sroa.045.054 = phi ptr [ %25, %24 ], [ %14, %._crit_edge ]
  %17 = getelementptr inbounds nuw i8, ptr %.sroa.045.054, i64 8
  %18 = load ptr, ptr %17, align 8
  %19 = icmp eq ptr %18, %0
  br i1 %19, label %20, label %24

20:                                               ; preds = %.lr.ph57
  %21 = getelementptr inbounds nuw i8, ptr %.sroa.045.054, i64 16
  %22 = load i8, ptr %21, align 8, !range !49, !noundef !50
  %23 = xor i8 %22, 1
  %not. = zext nneg i8 %23 to i32
  %spec.select = add i32 %.155, %not.
  br label %24

24:                                               ; preds = %20, %.lr.ph57
  %.2 = phi i32 [ %.155, %.lr.ph57 ], [ %spec.select, %20 ]
  %25 = getelementptr inbounds nuw i8, ptr %.sroa.045.054, i64 32
  %.not49 = icmp eq ptr %25, %16
  br i1 %.not49, label %._crit_edge58, label %.lr.ph57, !llvm.loop !56

26:                                               ; preds = %._crit_edge58
  %27 = add i32 %.2, %13
  %28 = zext i32 %27 to i64
  %29 = shl nuw nsw i64 %28, 3
  %30 = tail call noalias noundef nonnull ptr @_Znam(i64 noundef %29) #22
  %.not44 = icmp eq i32 %13, 0
  br i1 %.not44, label %38, label %31

31:                                               ; preds = %26
  %32 = getelementptr inbounds nuw i8, ptr %0, i64 1112
  %33 = load ptr, ptr %32, align 8
  %34 = zext i32 %13 to i64
  %35 = shl nuw nsw i64 %34, 3
  tail call void @llvm.memcpy.p0.p0.i64(ptr nonnull align 8 %30, ptr align 8 %33, i64 %35, i1 false)
  %36 = icmp eq ptr %33, null
  br i1 %36, label %38, label %37

37:                                               ; preds = %31
  tail call void @_ZdaPv(ptr noundef nonnull %33) #24
  %.pre = load i32, ptr %3, align 8
  br label %38

38:                                               ; preds = %31, %37, %26
  %39 = phi i32 [ %13, %31 ], [ %.pre, %37 ], [ 0, %26 ]
  %40 = getelementptr inbounds nuw i8, ptr %0, i64 1112
  store ptr %30, ptr %40, align 8
  %41 = add i32 %39, %.2
  store i32 %41, ptr %3, align 8
  %42 = load ptr, ptr %15, align 8
  %43 = load ptr, ptr %1, align 8
  %.not65 = icmp eq ptr %42, %43
  br i1 %.not65, label %.loopexit, label %.lr.ph63.preheader

.lr.ph63.preheader:                               ; preds = %38
  %44 = zext i32 %39 to i64
  %45 = getelementptr inbounds nuw ptr, ptr %30, i64 %44
  br label %.lr.ph63

.lr.ph63:                                         ; preds = %.lr.ph63.preheader, %61
  %46 = phi ptr [ %62, %61 ], [ %43, %.lr.ph63.preheader ]
  %47 = phi ptr [ %63, %61 ], [ %42, %.lr.ph63.preheader ]
  %48 = phi i64 [ %65, %61 ], [ 0, %.lr.ph63.preheader ]
  %.03761 = phi i32 [ %64, %61 ], [ 0, %.lr.ph63.preheader ]
  %.03860 = phi ptr [ %.139, %61 ], [ %45, %.lr.ph63.preheader ]
  %49 = getelementptr inbounds nuw %"struct.Assimp::NodeAttachmentInfo", ptr %46, i64 %48
  %50 = getelementptr inbounds nuw i8, ptr %49, i64 8
  %51 = load ptr, ptr %50, align 8
  %52 = icmp eq ptr %51, %0
  br i1 %52, label %53, label %61

53:                                               ; preds = %.lr.ph63
  %54 = getelementptr inbounds nuw i8, ptr %49, i64 16
  %55 = load i8, ptr %54, align 8, !range !49, !noundef !50
  %56 = trunc nuw i8 %55 to i1
  br i1 %56, label %61, label %57

57:                                               ; preds = %53
  %58 = load ptr, ptr %49, align 8
  store ptr %58, ptr %.03860, align 8
  %59 = getelementptr inbounds nuw i8, ptr %58, i64 1096
  store ptr %0, ptr %59, align 8
  %60 = getelementptr inbounds nuw i8, ptr %.03860, i64 8
  store i8 1, ptr %54, align 8
  %.pre67 = load ptr, ptr %15, align 8
  %.pre68 = load ptr, ptr %1, align 8
  br label %61

61:                                               ; preds = %57, %53, %.lr.ph63
  %62 = phi ptr [ %46, %53 ], [ %.pre68, %57 ], [ %46, %.lr.ph63 ]
  %63 = phi ptr [ %47, %53 ], [ %.pre67, %57 ], [ %47, %.lr.ph63 ]
  %.139 = phi ptr [ %.03860, %53 ], [ %60, %57 ], [ %.03860, %.lr.ph63 ]
  %64 = add i32 %.03761, 1
  %65 = zext i32 %64 to i64
  %66 = ptrtoint ptr %63 to i64
  %67 = ptrtoint ptr %62 to i64
  %68 = sub i64 %66, %67
  %69 = ashr exact i64 %68, 5
  %70 = icmp ugt i64 %69, %65
  br i1 %70, label %.lr.ph63, label %.loopexit, !llvm.loop !57

.loopexit:                                        ; preds = %61, %._crit_edge, %38, %._crit_edge58
  ret void
}